; Function Attrs: mustprogress nofree norecurse nosync nounwind willreturn memory(argmem: read) uwtable
define dso_local noundef zeroext i1 @_ZNK4llvm16CheckTypeMatcher19isContradictoryImplEPKNS_7MatcherE(ptr nocapture noundef nonnull readonly align 8 dereferenceable(36) %0, ptr noundef readonly %1) unnamed_addr #4 align 2 {
  %3 = getelementptr inbounds nuw i8, ptr %1, i64 24
  %4 = load i32, ptr %3, align 8
  %5 = icmp ne i32 %4, 14
  %.not7 = icmp eq ptr %1, null
  %.not = or i1 %.not7, %5
  br i1 %.not, label %_ZL21TypesAreContradictoryN4llvm3MVT15SimpleValueTypeES1_.exit, label %6

6:                                                ; preds = %2
  %7 = getelementptr inbounds nuw i8, ptr %0, i64 28
  %8 = load i16, ptr %7, align 4
  %9 = getelementptr inbounds nuw i8, ptr %1, i64 28
  %10 = load i16, ptr %9, align 4
  %11 = icmp eq i16 %8, %10
  br i1 %11, label %_ZL21TypesAreContradictoryN4llvm3MVT15SimpleValueTypeES1_.exit, label %12

12:                                               ; preds = %6
  %13 = icmp eq i16 %8, 510
  br i1 %13, label %14, label %18

14:                                               ; preds = %12
  %15 = add i16 %10, -10
  %or.cond.i.i = icmp ult i16 %15, -8
  %16 = add i16 %10, -17
  %or.cond3.i.i = icmp ugt i16 %16, 70
  %or.cond4.i.not23.i = and i1 %or.cond.i.i, %or.cond3.i.i
  %17 = add i16 %10, -169
  %spec.select.i.i6 = icmp ult i16 %17, -32
  %or.cond.not.i = and i1 %spec.select.i.i6, %or.cond4.i.not23.i
  %spec.select.i10.i = icmp ult i16 %16, 173
  %spec.select.i = or i1 %spec.select.i10.i, %or.cond.not.i
  br label %_ZL21TypesAreContradictoryN4llvm3MVT15SimpleValueTypeES1_.exit

18:                                               ; preds = %12
  %19 = icmp eq i16 %10, 510
  br i1 %19, label %20, label %_ZL21TypesAreContradictoryN4llvm3MVT15SimpleValueTypeES1_.exit

20:                                               ; preds = %18
  %21 = add i16 %8, -10
  %or.cond.i11.i = icmp ult i16 %21, -8
  %22 = add i16 %8, -17
  %or.cond3.i12.i = icmp ugt i16 %22, 70
  %or.cond4.i13.not22.i = and i1 %or.cond.i11.i, %or.cond3.i12.i
  %23 = add i16 %8, -169
  %spec.select.i14.i = icmp ult i16 %23, -32
  %or.cond20.not.i = and i1 %spec.select.i14.i, %or.cond4.i13.not22.i
  %spec.select.i16.i = icmp ult i16 %22, 173
  %spec.select21.i = or i1 %spec.select.i16.i, %or.cond20.not.i
  br label %_ZL21TypesAreContradictoryN4llvm3MVT15SimpleValueTypeES1_.exit

_ZL21TypesAreContradictoryN4llvm3MVT15SimpleValueTypeES1_.exit: ; preds = %20, %18, %14, %6, %2
  %.0 = phi i1 [ false, %2 ], [ false, %6 ], [ true, %18 ], [ %spec.select.i, %14 ], [ %spec.select21.i, %20 ]
  ret i1 %.0
}